target datalayout = "e-m:e-p270:32:32-p271:32:32-p272:64:64-i64:64-i128:128-f80:128-n8:16:32:64-S128"
target triple = "x86_64-pc-linux-gnu"

%struct.FunctionCallInfoBaseData = type { ptr, ptr, ptr, i32, i8, i16, [0 x %struct.NullableDatum] }
%struct.NullableDatum = type { i64, i8 }

@.str.2 = private unnamed_addr constant [6 x i8] c"int.c\00", align 1
@.str.7 = private unnamed_addr constant [21 x i8] c"integer out of range\00", align 1
@__func__.int4um = private unnamed_addr constant [7 x i8] c"int4um\00", align 1

; Function Attrs: inlinehint nounwind uwtable
define internal i64 @Int32GetDatum(i32 noundef %0) #2 {
  %2 = alloca i32, align 4
  store i32 %0, ptr %2, align 4
  %3 = load i32, ptr %2, align 4
  %4 = sext i32 %3 to i64
  ret i64 %4
}

; Function Attrs: inlinehint nounwind uwtable
define internal i32 @DatumGetInt32(i64 noundef %0) #2 {
  %2 = alloca i64, align 8
  store i64 %0, ptr %2, align 8
  %3 = load i64, ptr %2, align 8
  %4 = trunc i64 %3 to i32
  ret i32 %4
}

; Function Attrs: nounwind uwtable
define dso_local i64 @int4um(ptr noundef %0) #0 {
  %2 = alloca ptr, align 8
  %3 = alloca i32, align 4
  store ptr %0, ptr %2, align 8
  call void @llvm.lifetime.start.p0(i64 4, ptr %3) #10
  %4 = load ptr, ptr %2, align 8
  %5 = getelementptr inbounds nuw %struct.FunctionCallInfoBaseData, ptr %4, i32 0, i32 6
  %6 = getelementptr inbounds [0 x %struct.NullableDatum], ptr %5, i64 0, i64 0
  %7 = getelementptr inbounds nuw %struct.NullableDatum, ptr %6, i32 0, i32 0
  %8 = load i64, ptr %7, align 8
  %9 = call i32 @DatumGetInt32(i64 noundef %8)
  store i32 %9, ptr %3, align 4
  %10 = load i32, ptr %3, align 4
  %11 = icmp eq i32 %10, -2147483648
  %12 = zext i1 %11 to i32
  %13 = icmp ne i32 %12, 0
  %14 = zext i1 %13 to i32
  %15 = sext i32 %14 to i64
  %16 = call i64 @llvm.expect.i64(i64 %15, i64 0)
  %17 = icmp ne i64 %16, 0
  br i1 %17, label %18, label %30

18:                                               ; preds = %1
  br label %19

19:                                               ; preds = %18
  br i1 true, label %20, label %22

20:                                               ; preds = %19
  %21 = call zeroext i1 @errstart_cold(i32 noundef 21, ptr noundef null) #12
  br i1 %21, label %24, label %27

22:                                               ; preds = %19
  %23 = call zeroext i1 @errstart(i32 noundef 21, ptr noundef null)
  br i1 %23, label %24, label %27

24:                                               ; preds = %22, %20
  %25 = call i32 @errcode(i32 noundef 50331778)
  %26 = call i32 (ptr, ...) @errmsg(ptr noundef @.str.7)
  call void @errfinish(ptr noundef @.str.2, i32 noundef 778, ptr noundef @__func__.int4um)
  br label %27

27:                                               ; preds = %24, %22, %20
  unreachable

28:                                               ; No predecessors!
  br label %29

29:                                               ; preds = %28
  br label %30

30:                                               ; preds = %29, %1
  %31 = load i32, ptr %3, align 4
  %32 = sub i32 0, %31
  %33 = call i64 @Int32GetDatum(i32 noundef %32)
  call void @llvm.lifetime.end.p0(i64 4, ptr %3) #10
  ret i64 %33
}